target datalayout = "e-m:e-p270:32:32-p271:32:32-p272:64:64-i64:64-i128:128-f80:128-n8:16:32:64-S128"
target triple = "x86_64-pc-linux-gnu"

%struct._object = type { %union.anon, ptr }
%union.anon = type { i64 }
%struct.group = type { ptr, ptr, i32, ptr }
%struct.anon = type { i32, i32 }

@PyExc_KeyError = external global ptr, align 8
@.str.6 = private unnamed_addr constant [30 x i8] c"getgrgid(): gid not found: %S\00", align 1

; Function Attrs: alwaysinline nounwind uwtable
define internal i32 @_Py_IsImmortal(ptr noundef %0) #4 {
  %2 = alloca ptr, align 8
  store ptr %0, ptr %2, align 8, !tbaa !3
  %3 = load ptr, ptr %2, align 8, !tbaa !3
  %4 = getelementptr inbounds nuw %struct._object, ptr %3, i32 0, i32 0
  %5 = getelementptr inbounds nuw %struct.anon, ptr %4, i32 0, i32 0
  %6 = load i32, ptr %5, align 8, !tbaa !27
  %7 = icmp slt i32 %6, 0
  %8 = zext i1 %7 to i32
  ret i32 %8
}

; Function Attrs: alwaysinline nounwind uwtable
define internal void @Py_DECREF(ptr noundef %0) #4 {
  %2 = alloca ptr, align 8
  store ptr %0, ptr %2, align 8, !tbaa !3
  %3 = load ptr, ptr %2, align 8, !tbaa !3
  %4 = call i32 @_Py_IsImmortal(ptr noundef %3)
  %5 = icmp ne i32 %4, 0
  br i1 %5, label %6, label %7

6:                                                ; preds = %1
  br label %16

7:                                                ; preds = %1
  %8 = load ptr, ptr %2, align 8, !tbaa !3
  %9 = getelementptr inbounds nuw %struct._object, ptr %8, i32 0, i32 0
  %10 = getelementptr inbounds nuw %struct.anon, ptr %9, i32 0, i32 0
  %11 = load i32, ptr %10, align 8, !tbaa !27
  %12 = add i32 %11, -1
  store i32 %12, ptr %10, align 8, !tbaa !27
  %13 = icmp eq i32 %12, 0
  br i1 %13, label %14, label %16

14:                                               ; preds = %7
  %15 = load ptr, ptr %2, align 8, !tbaa !3
  call void @_Py_Dealloc(ptr noundef %15)
  br label %16

16:                                               ; preds = %6, %14, %7
  ret void
}

; Function Attrs: nounwind uwtable
define internal ptr @grp_getgrgid_impl(ptr noundef %0, ptr noundef %1) #0 {
  %3 = alloca ptr, align 8
  %4 = alloca ptr, align 8
  %5 = alloca ptr, align 8
  %6 = alloca ptr, align 8
  %7 = alloca i32, align 4
  %8 = alloca ptr, align 8
  %9 = alloca ptr, align 8
  %10 = alloca i32, align 4
  %11 = alloca ptr, align 8
  %12 = alloca i32, align 4
  %13 = alloca i32, align 4
  %14 = alloca i64, align 8
  %15 = alloca %struct.group, align 8
  %16 = alloca ptr, align 8
  %17 = alloca ptr, align 8
  store ptr %0, ptr %4, align 8, !tbaa !3
  store ptr %1, ptr %5, align 8, !tbaa !3
  call void @llvm.lifetime.start.p0(i64 8, ptr %6) #7
  store ptr null, ptr %6, align 8, !tbaa !3
  call void @llvm.lifetime.start.p0(i64 4, ptr %7) #7
  store i32 0, ptr %7, align 4, !tbaa !12
  call void @llvm.lifetime.start.p0(i64 8, ptr %8) #7
  store ptr null, ptr %8, align 8, !tbaa !21
  call void @llvm.lifetime.start.p0(i64 8, ptr %9) #7
  store ptr null, ptr %9, align 8, !tbaa !21
  call void @llvm.lifetime.start.p0(i64 4, ptr %10) #7
  call void @llvm.lifetime.start.p0(i64 8, ptr %11) #7
  %18 = load ptr, ptr %5, align 8, !tbaa !3
  %19 = call i32 @_Py_Gid_Converter(ptr noundef %18, ptr noundef %10)
  %20 = icmp ne i32 %19, 0
  br i1 %20, label %22, label %21

21:                                               ; preds = %2
  store ptr null, ptr %3, align 8
  store i32 1, ptr %12, align 4
  br label %89

22:                                               ; preds = %2
  call void @llvm.lifetime.start.p0(i64 4, ptr %13) #7
  call void @llvm.lifetime.start.p0(i64 8, ptr %14) #7
  call void @llvm.lifetime.start.p0(i64 32, ptr %15) #7
  call void @llvm.lifetime.start.p0(i64 8, ptr %16) #7
  %23 = call ptr @PyEval_SaveThread()
  store ptr %23, ptr %16, align 8, !tbaa !23
  %24 = call i64 @sysconf(i32 noundef 69) #7
  store i64 %24, ptr %14, align 8, !tbaa !19
  %25 = load i64, ptr %14, align 8, !tbaa !19
  %26 = icmp eq i64 %25, -1
  br i1 %26, label %27, label %28

27:                                               ; preds = %22
  store i64 1024, ptr %14, align 8, !tbaa !19
  br label %28

28:                                               ; preds = %27, %22
  br label %29

29:                                               ; preds = %57, %28
  br label %30

30:                                               ; preds = %29
  %31 = load ptr, ptr %8, align 8, !tbaa !21
  %32 = load i64, ptr %14, align 8, !tbaa !19
  %33 = call ptr @PyMem_RawRealloc(ptr noundef %31, i64 noundef %32)
  store ptr %33, ptr %9, align 8, !tbaa !21
  %34 = load ptr, ptr %9, align 8, !tbaa !21
  %35 = icmp eq ptr %34, null
  br i1 %35, label %36, label %37

36:                                               ; preds = %30
  store ptr null, ptr %11, align 8, !tbaa !25
  store i32 1, ptr %7, align 4, !tbaa !12
  br label %60

37:                                               ; preds = %30
  %38 = load ptr, ptr %9, align 8, !tbaa !21
  store ptr %38, ptr %8, align 8, !tbaa !21
  %39 = load i32, ptr %10, align 4, !tbaa !12
  %40 = load ptr, ptr %8, align 8, !tbaa !21
  %41 = load i64, ptr %14, align 8, !tbaa !19
  %42 = call i32 @getgrgid_r(i32 noundef %39, ptr noundef %15, ptr noundef %40, i64 noundef %41, ptr noundef %11)
  store i32 %42, ptr %13, align 4, !tbaa !12
  %43 = load i32, ptr %13, align 4, !tbaa !12
  %44 = icmp ne i32 %43, 0
  br i1 %44, label %45, label %46

45:                                               ; preds = %37
  store ptr null, ptr %11, align 8, !tbaa !25
  br label %46

46:                                               ; preds = %45, %37
  %47 = load ptr, ptr %11, align 8, !tbaa !25
  %48 = icmp ne ptr %47, null
  br i1 %48, label %52, label %49

49:                                               ; preds = %46
  %50 = load i32, ptr %13, align 4, !tbaa !12
  %51 = icmp ne i32 %50, 34
  br i1 %51, label %52, label %53

52:                                               ; preds = %49, %46
  br label %60

53:                                               ; preds = %49
  %54 = load i64, ptr %14, align 8, !tbaa !19
  %55 = icmp sgt i64 %54, 4611686018427387903
  br i1 %55, label %56, label %57

56:                                               ; preds = %53
  store i32 1, ptr %7, align 4, !tbaa !12
  br label %60

57:                                               ; preds = %53
  %58 = load i64, ptr %14, align 8, !tbaa !19
  %59 = shl i64 %58, 1
  store i64 %59, ptr %14, align 8, !tbaa !19
  br label %29

60:                                               ; preds = %56, %52, %36
  %61 = load ptr, ptr %16, align 8, !tbaa !23
  call void @PyEval_RestoreThread(ptr noundef %61)
  call void @llvm.lifetime.end.p0(i64 8, ptr %16) #7
  %62 = load ptr, ptr %11, align 8, !tbaa !25
  %63 = icmp eq ptr %62, null
  br i1 %63, label %64, label %82

64:                                               ; preds = %60
  %65 = load ptr, ptr %8, align 8, !tbaa !21
  call void @PyMem_RawFree(ptr noundef %65)
  %66 = load i32, ptr %7, align 4, !tbaa !12
  %67 = icmp eq i32 %66, 1
  br i1 %67, label %68, label %70

68:                                               ; preds = %64
  %69 = call ptr @PyErr_NoMemory()
  store ptr %69, ptr %3, align 8
  store i32 1, ptr %12, align 4
  br label %88

70:                                               ; preds = %64
  call void @llvm.lifetime.start.p0(i64 8, ptr %17) #7
  %71 = load i32, ptr %10, align 4, !tbaa !12
  %72 = call ptr @_PyLong_FromGid(i32 noundef %71)
  store ptr %72, ptr %17, align 8, !tbaa !3
  %73 = load ptr, ptr %17, align 8, !tbaa !3
  %74 = icmp eq ptr %73, null
  br i1 %74, label %75, label %76

75:                                               ; preds = %70
  store ptr null, ptr %3, align 8
  store i32 1, ptr %12, align 4
  br label %81

76:                                               ; preds = %70
  %77 = load ptr, ptr @PyExc_KeyError, align 8, !tbaa !3
  %78 = load ptr, ptr %17, align 8, !tbaa !3
  %79 = call ptr (ptr, ptr, ...) @PyErr_Format(ptr noundef %77, ptr noundef @.str.6, ptr noundef %78)
  %80 = load ptr, ptr %17, align 8, !tbaa !3
  call void @Py_DECREF(ptr noundef %80)
  store ptr null, ptr %3, align 8
  store i32 1, ptr %12, align 4
  br label %81

81:                                               ; preds = %76, %75
  call void @llvm.lifetime.end.p0(i64 8, ptr %17) #7
  br label %88

82:                                               ; preds = %60
  %83 = load ptr, ptr %4, align 8, !tbaa !3
  %84 = load ptr, ptr %11, align 8, !tbaa !25
  %85 = call ptr @mkgrent(ptr noundef %83, ptr noundef %84)
  store ptr %85, ptr %6, align 8, !tbaa !3
  %86 = load ptr, ptr %8, align 8, !tbaa !21
  call void @PyMem_RawFree(ptr noundef %86)
  %87 = load ptr, ptr %6, align 8, !tbaa !3
  store ptr %87, ptr %3, align 8
  store i32 1, ptr %12, align 4
  br label %88

88:                                               ; preds = %82, %81, %68
  call void @llvm.lifetime.end.p0(i64 32, ptr %15) #7
  call void @llvm.lifetime.end.p0(i64 8, ptr %14) #7
  call void @llvm.lifetime.end.p0(i64 4, ptr %13) #7
  br label %89

89:                                               ; preds = %88, %21
  call void @llvm.lifetime.end.p0(i64 8, ptr %11) #7
  call void @llvm.lifetime.end.p0(i64 4, ptr %10) #7
  call void @llvm.lifetime.end.p0(i64 8, ptr %9) #7
  call void @llvm.lifetime.end.p0(i64 8, ptr %8) #7
  call void @llvm.lifetime.end.p0(i64 4, ptr %7) #7
  call void @llvm.lifetime.end.p0(i64 8, ptr %6) #7
  %90 = load ptr, ptr %3, align 8
  ret ptr %90
}

; Function Attrs: nounwind uwtable
define internal ptr @grp_getgrgid(ptr noundef %0, ptr noundef %1, i64 noundef %2, ptr noundef %3) #0 {
  %5 = alloca ptr, align 8
  %6 = alloca ptr, align 8
  %7 = alloca i64, align 8
  %8 = alloca ptr, align 8
  %9 = alloca ptr, align 8
  %10 = alloca [1 x ptr], align 8
  %11 = alloca ptr, align 8
  store ptr %0, ptr %5, align 8, !tbaa !3
  store ptr %1, ptr %6, align 8, !tbaa !17
  store i64 %2, ptr %7, align 8, !tbaa !19
  store ptr %3, ptr %8, align 8, !tbaa !3
  call void @llvm.lifetime.start.p0(i64 8, ptr %9) #7
  store ptr null, ptr %9, align 8, !tbaa !3
  call void @llvm.lifetime.start.p0(i64 8, ptr %10) #7
  call void @llvm.lifetime.start.p0(i64 8, ptr %11) #7
  %12 = load ptr, ptr %8, align 8, !tbaa !3
  %13 = icmp eq ptr %12, null
  br i1 %13, label %14, label %25

14:                                               ; preds = %4
  %15 = load i64, ptr %7, align 8, !tbaa !19
  %16 = icmp sle i64 1, %15
  br i1 %16, label %17, label %25

17:                                               ; preds = %14
  %18 = load i64, ptr %7, align 8, !tbaa !19
  %19 = icmp sle i64 %18, 1
  br i1 %19, label %20, label %25

20:                                               ; preds = %17
  %21 = load ptr, ptr %6, align 8, !tbaa !17
  %22 = icmp ne ptr %21, null
  br i1 %22, label %23, label %25

23:                                               ; preds = %20
  %24 = load ptr, ptr %6, align 8, !tbaa !17
  br label %31

25:                                               ; preds = %20, %17, %14, %4
  %26 = load ptr, ptr %6, align 8, !tbaa !17
  %27 = load i64, ptr %7, align 8, !tbaa !19
  %28 = load ptr, ptr %8, align 8, !tbaa !3
  %29 = getelementptr inbounds [1 x ptr], ptr %10, i64 0, i64 0
  %30 = call ptr @_PyArg_UnpackKeywords(ptr noundef %26, i64 noundef %27, ptr noundef null, ptr noundef %28, ptr noundef @grp_getgrgid._parser, i32 noundef 1, i32 noundef 1, i32 noundef 0, i32 noundef 0, ptr noundef %29)
  br label %31

31:                                               ; preds = %25, %23
  %32 = phi ptr [ %24, %23 ], [ %30, %25 ]
  store ptr %32, ptr %6, align 8, !tbaa !17
  %33 = load ptr, ptr %6, align 8, !tbaa !17
  %34 = icmp ne ptr %33, null
  br i1 %34, label %36, label %35

35:                                               ; preds = %31
  br label %43

36:                                               ; preds = %31
  %37 = load ptr, ptr %6, align 8, !tbaa !17
  %38 = getelementptr ptr, ptr %37, i64 0
  %39 = load ptr, ptr %38, align 8, !tbaa !3
  store ptr %39, ptr %11, align 8, !tbaa !3
  %40 = load ptr, ptr %5, align 8, !tbaa !3
  %41 = load ptr, ptr %11, align 8, !tbaa !3
  %42 = call ptr @grp_getgrgid_impl(ptr noundef %40, ptr noundef %41)
  store ptr %42, ptr %9, align 8, !tbaa !3
  br label %43

43:                                               ; preds = %36, %35
  %44 = load ptr, ptr %9, align 8, !tbaa !3
  call void @llvm.lifetime.end.p0(i64 8, ptr %11) #7
  call void @llvm.lifetime.end.p0(i64 8, ptr %10) #7
  call void @llvm.lifetime.end.p0(i64 8, ptr %9) #7
  ret ptr %44
}