; Function Attrs: nounwind uwtable
define internal ptr @grp_getgrgid(ptr noundef %0, ptr noundef %1, i64 noundef %2, ptr noundef %3) #0 {
  %5 = alloca i32, align 4
  %6 = alloca ptr, align 8
  %7 = alloca %struct.group, align 8
  %8 = alloca [1 x ptr], align 8
  call void @llvm.lifetime.start.p0(i64 8, ptr nonnull %8) #4
  %9 = icmp eq ptr %3, null
  %10 = icmp eq i64 %2, 1
  %or.cond3 = and i1 %10, %9
  %11 = icmp ne ptr %1, null
  %or.cond5 = and i1 %11, %or.cond3
  br i1 %or.cond5, label %.thread, label %12

12:                                               ; preds = %4
  %13 = call ptr @_PyArg_UnpackKeywords(ptr noundef %1, i64 noundef %2, ptr noundef null, ptr noundef %3, ptr noundef nonnull @grp_getgrgid._parser, i32 noundef 1, i32 noundef 1, i32 noundef 0, i32 noundef 0, ptr noundef nonnull %8) #4
  %.not = icmp eq ptr %13, null
  br i1 %.not, label %53, label %.thread

.thread:                                          ; preds = %4, %12
  %14 = phi ptr [ %13, %12 ], [ %1, %4 ]
  %15 = load ptr, ptr %14, align 8, !tbaa !11
  call void @llvm.lifetime.start.p0(i64 4, ptr nonnull %5) #4
  call void @llvm.lifetime.start.p0(i64 8, ptr nonnull %6) #4
  %16 = call i32 @_Py_Gid_Converter(ptr noundef %15, ptr noundef nonnull %5) #4
  %.not.i = icmp eq i32 %16, 0
  br i1 %.not.i, label %grp_getgrgid_impl.exit, label %17

17:                                               ; preds = %.thread
  call void @llvm.lifetime.start.p0(i64 32, ptr nonnull %7) #4
  %18 = call ptr @PyEval_SaveThread() #4
  %19 = call i64 @sysconf(i32 noundef 69) #4
  %20 = icmp eq i64 %19, -1
  %spec.store.select.i = select i1 %20, i64 1024, i64 %19
  %21 = call ptr @PyMem_RawRealloc(ptr noundef null, i64 noundef %spec.store.select.i) #4
  %22 = icmp eq ptr %21, null
  br i1 %22, label %._crit_edge.i, label %.lr.ph.i

23:                                               ; preds = %31
  %24 = shl i64 %.02234.i, 1
  %25 = call ptr @PyMem_RawRealloc(ptr noundef nonnull %27, i64 noundef %24) #4
  %26 = icmp eq ptr %25, null
  br i1 %26, label %._crit_edge.i, label %.lr.ph.i

._crit_edge.i:                                    ; preds = %23, %17
  %.024.lcssa.i = phi ptr [ null, %17 ], [ %27, %23 ]
  store ptr null, ptr %6, align 8, !tbaa !13
  br label %.thread.i

.lr.ph.i:                                         ; preds = %17, %23
  %27 = phi ptr [ %25, %23 ], [ %21, %17 ]
  %.02234.i = phi i64 [ %24, %23 ], [ %spec.store.select.i, %17 ]
  %28 = load i32, ptr %5, align 4, !tbaa !15
  %29 = call i32 @getgrgid_r(i32 noundef %28, ptr noundef nonnull %7, ptr noundef nonnull %27, i64 noundef %.02234.i, ptr noundef nonnull %6) #4
  %.not29.i = icmp eq i32 %29, 0
  br i1 %.not29.i, label %.thread.i, label %30

30:                                               ; preds = %.lr.ph.i
  store ptr null, ptr %6, align 8, !tbaa !13
  %.not31.i = icmp eq i32 %29, 34
  br i1 %.not31.i, label %31, label %.thread.i

31:                                               ; preds = %30
  %32 = icmp sgt i64 %.02234.i, 4611686018427387903
  br i1 %32, label %.thread.i, label %23

.thread.i:                                        ; preds = %31, %30, %.lr.ph.i, %._crit_edge.i
  %.125.i = phi ptr [ %.024.lcssa.i, %._crit_edge.i ], [ %27, %.lr.ph.i ], [ %27, %30 ], [ %27, %31 ]
  %33 = phi i1 [ true, %._crit_edge.i ], [ true, %31 ], [ false, %30 ], [ false, %.lr.ph.i ]
  call void @PyEval_RestoreThread(ptr noundef %18) #4
  %34 = load ptr, ptr %6, align 8, !tbaa !13
  %35 = icmp eq ptr %34, null
  br i1 %35, label %36, label %51

36:                                               ; preds = %.thread.i
  call void @PyMem_RawFree(ptr noundef %.125.i) #4
  br i1 %33, label %37, label %39

37:                                               ; preds = %36
  %38 = call ptr @PyErr_NoMemory() #4
  br label %Py_DECREF.exit.i

39:                                               ; preds = %36
  %40 = load i32, ptr %5, align 4, !tbaa !15
  %41 = call ptr @_PyLong_FromGid(i32 noundef %40) #4
  %42 = icmp eq ptr %41, null
  br i1 %42, label %Py_DECREF.exit.i, label %43

43:                                               ; preds = %39
  %44 = load ptr, ptr @PyExc_KeyError, align 8, !tbaa !11
  %45 = call ptr (ptr, ptr, ...) @PyErr_Format(ptr noundef %44, ptr noundef nonnull @.str.6, ptr noundef nonnull %41) #4
  %46 = load i32, ptr %41, align 8, !tbaa !10
  %.not.i.i = icmp sgt i32 %46, -1
  br i1 %.not.i.i, label %47, label %Py_DECREF.exit.i

47:                                               ; preds = %43
  %48 = add nsw i32 %46, -1
  store i32 %48, ptr %41, align 8, !tbaa !10
  %49 = icmp eq i32 %48, 0
  br i1 %49, label %50, label %Py_DECREF.exit.i

50:                                               ; preds = %47
  call void @_Py_Dealloc(ptr noundef nonnull %41) #4
  br label %Py_DECREF.exit.i

51:                                               ; preds = %.thread.i
  %52 = call fastcc ptr @mkgrent(ptr noundef %0, ptr noundef %34)
  call void @PyMem_RawFree(ptr noundef %.125.i) #4
  br label %Py_DECREF.exit.i

Py_DECREF.exit.i:                                 ; preds = %51, %50, %47, %43, %39, %37
  %.1.i = phi ptr [ %38, %37 ], [ %52, %51 ], [ null, %39 ], [ null, %43 ], [ null, %47 ], [ null, %50 ]
  call void @llvm.lifetime.end.p0(i64 32, ptr nonnull %7) #4
  br label %grp_getgrgid_impl.exit

grp_getgrgid_impl.exit:                           ; preds = %.thread, %Py_DECREF.exit.i
  %.0.i = phi ptr [ %.1.i, %Py_DECREF.exit.i ], [ null, %.thread ]
  call void @llvm.lifetime.end.p0(i64 8, ptr nonnull %6) #4
  call void @llvm.lifetime.end.p0(i64 4, ptr nonnull %5) #4
  br label %53

53:                                               ; preds = %12, %grp_getgrgid_impl.exit
  %.0 = phi ptr [ %.0.i, %grp_getgrgid_impl.exit ], [ null, %12 ]
  call void @llvm.lifetime.end.p0(i64 8, ptr nonnull %8) #4
  ret ptr %.0
}